; Function Attrs: nounwind sspstrong uwtable
define internal void @aio_timerlist_notify(ptr noundef %opaque, i32 %type) #0 {
entry:
  tail call void asm sideeffect "", "~{memory},~{dirflag},~{fpsr},~{flags}"() #13, !srcloc !7
  fence release
  %notified.i = getelementptr inbounds nuw i8, ptr %opaque, i64 200
  store atomic i8 1, ptr %notified.i monotonic, align 8
  tail call void asm sideeffect "", "~{memory},~{dirflag},~{fpsr},~{flags}"() #13, !srcloc !8
  fence seq_cst
  %notify_me.i = getelementptr inbounds nuw i8, ptr %opaque, i64 168
  %0 = load atomic i32, ptr %notify_me.i monotonic, align 8
  %tobool.not.i = icmp eq i32 %0, 0
  br i1 %tobool.not.i, label %aio_notify.exit, label %if.then.i

if.then.i:                                        ; preds = %entry
  %notifier.i = getelementptr inbounds nuw i8, ptr %opaque, i64 204
  %call.i = tail call i32 @event_notifier_set(ptr noundef nonnull %notifier.i) #13
  br label %aio_notify.exit

aio_notify.exit:                                  ; preds = %entry, %if.then.i
  ret void
}